target datalayout = "e-m:e-p270:32:32-p271:32:32-p272:64:64-i64:64-i128:128-f80:128-n8:16:32:64-S128"
target triple = "x86_64-pc-linux-gnu"

%"struct.nanogui::Array.2" = type { [2 x i32] }
%"class.std::__1::basic_string" = type { %"class.std::__1::__compressed_pair.4" }
%"class.std::__1::__compressed_pair.4" = type { %"struct.std::__1::__compressed_pair_elem.5" }
%"struct.std::__1::__compressed_pair_elem.5" = type { %"struct.std::__1::basic_string<char>::__rep" }
%"struct.std::__1::basic_string<char>::__rep" = type { %union.anon }
%union.anon = type { %"struct.std::__1::basic_string<char>::__long" }
%"struct.std::__1::basic_string<char>::__long" = type { %struct.anon.6, i64, ptr }
%struct.anon.6 = type { i64 }
%"struct.tev::Box" = type { %"struct.nanogui::Array.2", %"struct.nanogui::Array.2" }
%"class.std::__1::vector.94" = type { ptr, ptr, %"class.std::__1::__compressed_pair.95" }
%"class.std::__1::__compressed_pair.95" = type { %"struct.std::__1::__compressed_pair_elem.96" }
%"struct.std::__1::__compressed_pair_elem.96" = type { ptr }
%"class.tev::Channel" = type { %"class.std::__1::basic_string", %"struct.nanogui::Array.2", %"class.std::__1::vector.94" }
%class.anon.203 = type { i32, ptr, ptr, ptr, ptr, ptr, ptr }
%class.anon.184 = type { ptr, ptr, ptr }
%"class.std::__1::vector.186" = type { ptr, ptr, %"class.std::__1::__compressed_pair.187" }
%"class.std::__1::__compressed_pair.187" = type { %"struct.std::__1::__compressed_pair_elem.188" }
%"struct.std::__1::__compressed_pair_elem.188" = type { ptr }
%"struct.std::__1::__less" = type { i8 }

@_ZZN3tev11ImageCanvas23computeCanvasStatisticsENSt3__110shared_ptrINS_5ImageEEES4_RKNS1_12basic_stringIcNS1_11char_traitsIcEENS1_9allocatorIcEEEENS_7EMetricERKNS_3BoxIiLj2EEEiE8smallest = internal global float 0.000000e+00, align 4

; Function Attrs: mustprogress nounwind uwtable
define linkonce_odr hidden noundef zeroext i1 @_ZNKSt3__16__lessIvvEclB8ne190000IiiEEbRKT_RKT0_(ptr noundef nonnull align 1 dereferenceable(1) %0, ptr noundef nonnull align 4 dereferenceable(4) %1, ptr noundef nonnull align 4 dereferenceable(4) %2) #1 comdat align 2 {
  %4 = alloca ptr, align 8
  %5 = alloca ptr, align 8
  %6 = alloca ptr, align 8
  store ptr %0, ptr %4, align 8
  store ptr %1, ptr %5, align 8
  store ptr %2, ptr %6, align 8
  %7 = load ptr, ptr %5, align 8
  %8 = load i32, ptr %7, align 4
  %9 = load ptr, ptr %6, align 8
  %10 = load i32, ptr %9, align 4
  %11 = icmp slt i32 %8, %10
  ret i1 %11
}

; Function Attrs: mustprogress nounwind uwtable
define linkonce_odr hidden noundef nonnull align 4 dereferenceable(4) ptr @_ZNSt3__15clampB8ne190000IiNS_6__lessIvvEEEERKT_S5_S5_S5_T0_(ptr noundef nonnull align 4 dereferenceable(4) %0, ptr noundef nonnull align 4 dereferenceable(4) %1, ptr noundef nonnull align 4 dereferenceable(4) %2) #1 comdat {
  %4 = alloca %"struct.std::__1::__less", align 1
  %5 = alloca ptr, align 8
  %6 = alloca ptr, align 8
  %7 = alloca ptr, align 8
  store ptr %0, ptr %5, align 8
  store ptr %1, ptr %6, align 8
  store ptr %2, ptr %7, align 8
  %8 = load ptr, ptr %5, align 8
  %9 = load ptr, ptr %6, align 8
  %10 = call noundef zeroext i1 @_ZNKSt3__16__lessIvvEclB8ne190000IiiEEbRKT_RKT0_(ptr noundef nonnull align 1 dereferenceable(1) %4, ptr noundef nonnull align 4 dereferenceable(4) %8, ptr noundef nonnull align 4 dereferenceable(4) %9)
  br i1 %10, label %11, label %13

11:                                               ; preds = %3
  %12 = load ptr, ptr %6, align 8
  br label %23

13:                                               ; preds = %3
  %14 = load ptr, ptr %7, align 8
  %15 = load ptr, ptr %5, align 8
  %16 = call noundef zeroext i1 @_ZNKSt3__16__lessIvvEclB8ne190000IiiEEbRKT_RKT0_(ptr noundef nonnull align 1 dereferenceable(1) %4, ptr noundef nonnull align 4 dereferenceable(4) %14, ptr noundef nonnull align 4 dereferenceable(4) %15)
  br i1 %16, label %17, label %19

17:                                               ; preds = %13
  %18 = load ptr, ptr %7, align 8
  br label %21

19:                                               ; preds = %13
  %20 = load ptr, ptr %5, align 8
  br label %21

21:                                               ; preds = %19, %17
  %22 = phi ptr [ %18, %17 ], [ %20, %19 ]
  br label %23

23:                                               ; preds = %21, %11
  %24 = phi ptr [ %12, %11 ], [ %22, %21 ]
  ret ptr %24
}

; Function Attrs: mustprogress nounwind uwtable
define linkonce_odr hidden noundef float @_ZNSt3__16__math3logB8ne190000Ef(float noundef %0) #1 comdat {
  %2 = alloca float, align 4
  store float %0, ptr %2, align 4
  %3 = load float, ptr %2, align 4
  %4 = call float @logf(float noundef %3) #12
  ret float %4
}

; Function Attrs: mustprogress nounwind uwtable
define linkonce_odr hidden noundef nonnull align 4 dereferenceable(4) ptr @_ZNKSt3__16vectorIfNS_9allocatorIfEEEixB8ne190000Em(ptr noundef nonnull align 8 dereferenceable(24) %0, i64 noundef %1) #1 comdat align 2 {
  %3 = alloca ptr, align 8
  %4 = alloca i64, align 8
  store ptr %0, ptr %3, align 8
  store i64 %1, ptr %4, align 8
  %5 = load ptr, ptr %3, align 8
  %6 = getelementptr inbounds %"class.std::__1::vector.94", ptr %5, i32 0, i32 0
  %7 = load ptr, ptr %6, align 8
  %8 = load i64, ptr %4, align 8
  %9 = getelementptr inbounds float, ptr %7, i64 %8
  ret ptr %9
}

; Function Attrs: mustprogress uwtable
define linkonce_odr hidden noundef nonnull align 4 dereferenceable(4) ptr @_ZNSt3__15clampB8ne190000IiEERKT_S3_S3_S3_(ptr noundef nonnull align 4 dereferenceable(4) %0, ptr noundef nonnull align 4 dereferenceable(4) %1, ptr noundef nonnull align 4 dereferenceable(4) %2) #4 comdat {
  %4 = alloca ptr, align 8
  %5 = alloca ptr, align 8
  %6 = alloca ptr, align 8
  store ptr %0, ptr %4, align 8
  store ptr %1, ptr %5, align 8
  store ptr %2, ptr %6, align 8
  %7 = load ptr, ptr %4, align 8
  %8 = load ptr, ptr %5, align 8
  %9 = load ptr, ptr %6, align 8
  %10 = call noundef nonnull align 4 dereferenceable(4) ptr @_ZNSt3__15clampB8ne190000IiNS_6__lessIvvEEEERKT_S5_S5_S5_T0_(ptr noundef nonnull align 4 dereferenceable(4) %7, ptr noundef nonnull align 4 dereferenceable(4) %8, ptr noundef nonnull align 4 dereferenceable(4) %9)
  ret ptr %10
}

; Function Attrs: mustprogress nounwind uwtable
define internal noundef float @"_ZZN3tev11ImageCanvas23computeCanvasStatisticsENSt3__110shared_ptrINS_5ImageEEES4_RKNS1_12basic_stringIcNS1_11char_traitsIcEENS1_9allocatorIcEEEENS_7EMetricERKNS_3BoxIiLj2EEEiENK3$_1clEf"(ptr noundef nonnull align 1 dereferenceable(1) %0, float noundef %1) #1 align 2 {
  %3 = alloca ptr, align 8
  %4 = alloca float, align 4
  store ptr %0, ptr %3, align 8
  store float %1, ptr %4, align 4
  %5 = load float, ptr %4, align 4
  %6 = fcmp ogt float %5, 0.000000e+00
  br i1 %6, label %7, label %13

7:                                                ; preds = %2
  %8 = load float, ptr %4, align 4
  %9 = fadd float %8, 0x3F50624DE0000000
  %10 = call noundef float @_ZNSt3__16__math3logB8ne190000Ef(float noundef %9) #12
  %11 = load float, ptr @_ZZN3tev11ImageCanvas23computeCanvasStatisticsENSt3__110shared_ptrINS_5ImageEEES4_RKNS1_12basic_stringIcNS1_11char_traitsIcEENS1_9allocatorIcEEEENS_7EMetricERKNS_3BoxIiLj2EEEiE8smallest, align 4
  %12 = fsub float %10, %11
  br label %21

13:                                               ; preds = %2
  %14 = load float, ptr %4, align 4
  %15 = fneg float %14
  %16 = fadd float %15, 0x3F50624DE0000000
  %17 = call noundef float @_ZNSt3__16__math3logB8ne190000Ef(float noundef %16) #12
  %18 = load float, ptr @_ZZN3tev11ImageCanvas23computeCanvasStatisticsENSt3__110shared_ptrINS_5ImageEEES4_RKNS1_12basic_stringIcNS1_11char_traitsIcEENS1_9allocatorIcEEEENS_7EMetricERKNS_3BoxIiLj2EEEiE8smallest, align 4
  %19 = fsub float %17, %18
  %20 = fneg float %19
  br label %21

21:                                               ; preds = %13, %7
  %22 = phi float [ %12, %7 ], [ %20, %13 ]
  ret float %22
}

; Function Attrs: mustprogress nounwind uwtable
define linkonce_odr dso_local noundef float @_ZNK3tev7Channel2atEm(ptr noundef nonnull align 8 dereferenceable(56) %0, i64 noundef %1) #1 comdat align 2 {
  %3 = alloca ptr, align 8
  %4 = alloca i64, align 8
  store ptr %0, ptr %3, align 8
  store i64 %1, ptr %4, align 8
  %5 = load ptr, ptr %3, align 8
  %6 = getelementptr inbounds %"class.tev::Channel", ptr %5, i32 0, i32 2
  %7 = load i64, ptr %4, align 8
  %8 = call noundef nonnull align 4 dereferenceable(4) ptr @_ZNKSt3__16vectorIfNS_9allocatorIfEEEixB8ne190000Em(ptr noundef nonnull align 8 dereferenceable(24) %6, i64 noundef %7) #12
  %9 = load float, ptr %8, align 4
  ret float %9
}

; Function Attrs: mustprogress nounwind uwtable
define linkonce_odr dso_local noundef nonnull align 4 dereferenceable(4) ptr @_ZN7nanogui5ArrayIiLm2EE1yILm2ETnNSt3__19enable_ifIXgeT_Li2EEiE4typeELi0EEERiv(ptr noundef nonnull align 4 dereferenceable(8) %0) #1 comdat align 2 {
  %2 = alloca ptr, align 8
  store ptr %0, ptr %2, align 8
  %3 = load ptr, ptr %2, align 8
  %4 = getelementptr inbounds %"struct.nanogui::Array.2", ptr %3, i32 0, i32 0
  %5 = getelementptr inbounds [2 x i32], ptr %4, i64 0, i64 1
  ret ptr %5
}

; Function Attrs: mustprogress nounwind uwtable
define linkonce_odr hidden noundef nonnull align 4 dereferenceable(4) ptr @_ZNSt3__16vectorIiNS_9allocatorIiEEEixB8ne190000Em(ptr noundef nonnull align 8 dereferenceable(24) %0, i64 noundef %1) #1 comdat align 2 {
  %3 = alloca ptr, align 8
  %4 = alloca i64, align 8
  store ptr %0, ptr %3, align 8
  store i64 %1, ptr %4, align 8
  %5 = load ptr, ptr %3, align 8
  %6 = getelementptr inbounds %"class.std::__1::vector.186", ptr %5, i32 0, i32 0
  %7 = load ptr, ptr %6, align 8
  %8 = load i64, ptr %4, align 8
  %9 = getelementptr inbounds i32, ptr %7, i64 %8
  ret ptr %9
}

; Function Attrs: mustprogress uwtable
define internal noundef i32 @"_ZZN3tev11ImageCanvas23computeCanvasStatisticsENSt3__110shared_ptrINS_5ImageEEES4_RKNS1_12basic_stringIcNS1_11char_traitsIcEENS1_9allocatorIcEEEENS_7EMetricERKNS_3BoxIiLj2EEEiENK3$_2clEf"(ptr noundef nonnull align 8 dereferenceable(24) %0, float noundef %1) #4 align 2 {
  %3 = alloca ptr, align 8
  %4 = alloca float, align 4
  %5 = alloca i32, align 4
  %6 = alloca i32, align 4
  %7 = alloca i32, align 4
  store ptr %0, ptr %3, align 8
  store float %1, ptr %4, align 4
  %8 = load ptr, ptr %3, align 8
  %9 = getelementptr inbounds %class.anon.184, ptr %8, i32 0, i32 0
  %10 = load ptr, ptr %9, align 8
  %11 = load float, ptr %4, align 4
  %12 = call noundef float @"_ZZN3tev11ImageCanvas23computeCanvasStatisticsENSt3__110shared_ptrINS_5ImageEEES4_RKNS1_12basic_stringIcNS1_11char_traitsIcEENS1_9allocatorIcEEEENS_7EMetricERKNS_3BoxIiLj2EEEiENK3$_1clEf"(ptr noundef nonnull align 1 dereferenceable(1) %10, float noundef %11)
  %13 = getelementptr inbounds %class.anon.184, ptr %8, i32 0, i32 1
  %14 = load ptr, ptr %13, align 8
  %15 = load float, ptr %14, align 4
  %16 = fsub float %12, %15
  %17 = fmul float 4.000000e+02, %16
  %18 = getelementptr inbounds %class.anon.184, ptr %8, i32 0, i32 2
  %19 = load ptr, ptr %18, align 8
  %20 = load float, ptr %19, align 4
  %21 = fdiv float %17, %20
  %22 = fptosi float %21 to i32
  store i32 %22, ptr %5, align 4
  store i32 0, ptr %6, align 4
  store i32 399, ptr %7, align 4
  %23 = call noundef nonnull align 4 dereferenceable(4) ptr @_ZNSt3__15clampB8ne190000IiEERKT_S3_S3_S3_(ptr noundef nonnull align 4 dereferenceable(4) %5, ptr noundef nonnull align 4 dereferenceable(4) %6, ptr noundef nonnull align 4 dereferenceable(4) %7)
  %24 = load i32, ptr %23, align 4
  ret i32 %24
}

; Function Attrs: mustprogress uwtable
define linkonce_odr dso_local noundef float @_ZNK3tev7Channel2atEN7nanogui5ArrayIiLm2EEE(ptr noundef nonnull align 8 dereferenceable(56) %0, i64 %1) #4 comdat align 2 {
  %3 = alloca %"struct.nanogui::Array.2", align 4
  %4 = alloca ptr, align 8
  %5 = getelementptr inbounds %"struct.nanogui::Array.2", ptr %3, i32 0, i32 0
  store i64 %1, ptr %5, align 4
  store ptr %0, ptr %4, align 8
  %6 = load ptr, ptr %4, align 8
  %7 = call noundef nonnull align 4 dereferenceable(4) ptr @_ZN7nanogui5ArrayIiLm2EE1xILm2ETnNSt3__19enable_ifIXgeT_Li1EEiE4typeELi0EEERiv(ptr noundef nonnull align 4 dereferenceable(8) %3)
  %8 = load i32, ptr %7, align 4
  %9 = call noundef nonnull align 4 dereferenceable(4) ptr @_ZN7nanogui5ArrayIiLm2EE1yILm2ETnNSt3__19enable_ifIXgeT_Li2EEiE4typeELi0EEERiv(ptr noundef nonnull align 4 dereferenceable(8) %3)
  %10 = load i32, ptr %9, align 4
  %11 = getelementptr inbounds %"class.tev::Channel", ptr %6, i32 0, i32 1
  %12 = call noundef nonnull align 4 dereferenceable(4) ptr @_ZNK7nanogui5ArrayIiLm2EE1xILm2ETnNSt3__19enable_ifIXgeT_Li1EEiE4typeELi0EEERKiv(ptr noundef nonnull align 4 dereferenceable(8) %11)
  %13 = load i32, ptr %12, align 4
  %14 = mul nsw i32 %10, %13
  %15 = add nsw i32 %8, %14
  %16 = sext i32 %15 to i64
  %17 = call noundef float @_ZNK3tev7Channel2atEm(ptr noundef nonnull align 8 dereferenceable(56) %6, i64 noundef %16)
  ret float %17
}

; Function Attrs: mustprogress nounwind uwtable
define linkonce_odr dso_local void @_ZN7nanogui5ArrayIiLm2EEC2ILm2ETnNSt3__19enable_ifIXeqT_Li2EEiE4typeELi0EEEii(ptr noundef nonnull align 4 dereferenceable(8) %0, i32 noundef %1, i32 noundef %2) unnamed_addr #1 comdat align 2 {
  %4 = alloca ptr, align 8
  %5 = alloca i32, align 4
  %6 = alloca i32, align 4
  store ptr %0, ptr %4, align 8
  store i32 %1, ptr %5, align 4
  store i32 %2, ptr %6, align 4
  %7 = load ptr, ptr %4, align 8
  %8 = load i32, ptr %5, align 4
  %9 = getelementptr inbounds %"struct.nanogui::Array.2", ptr %7, i32 0, i32 0
  %10 = getelementptr inbounds [2 x i32], ptr %9, i64 0, i64 0
  store i32 %8, ptr %10, align 4
  %11 = load i32, ptr %6, align 4
  %12 = getelementptr inbounds %"struct.nanogui::Array.2", ptr %7, i32 0, i32 0
  %13 = getelementptr inbounds [2 x i32], ptr %12, i64 0, i64 1
  store i32 %11, ptr %13, align 4
  ret void
}

; Function Attrs: mustprogress nounwind uwtable
define linkonce_odr dso_local noundef nonnull align 4 dereferenceable(4) ptr @_ZNK7nanogui5ArrayIiLm2EE1yILm2ETnNSt3__19enable_ifIXgeT_Li2EEiE4typeELi0EEERKiv(ptr noundef nonnull align 4 dereferenceable(8) %0) #1 comdat align 2 {
  %2 = alloca ptr, align 8
  store ptr %0, ptr %2, align 8
  %3 = load ptr, ptr %2, align 8
  %4 = getelementptr inbounds %"struct.nanogui::Array.2", ptr %3, i32 0, i32 0
  %5 = getelementptr inbounds [2 x i32], ptr %4, i64 0, i64 1
  ret ptr %5
}

; Function Attrs: mustprogress nounwind uwtable
define linkonce_odr dso_local noundef nonnull align 4 dereferenceable(4) ptr @_ZNK7nanogui5ArrayIiLm2EE1xILm2ETnNSt3__19enable_ifIXgeT_Li1EEiE4typeELi0EEERKiv(ptr noundef nonnull align 4 dereferenceable(8) %0) #1 comdat align 2 {
  %2 = alloca ptr, align 8
  store ptr %0, ptr %2, align 8
  %3 = load ptr, ptr %2, align 8
  %4 = getelementptr inbounds %"struct.nanogui::Array.2", ptr %3, i32 0, i32 0
  %5 = getelementptr inbounds [2 x i32], ptr %4, i64 0, i64 0
  ret ptr %5
}

; Function Attrs: mustprogress nounwind uwtable
define linkonce_odr dso_local noundef nonnull align 4 dereferenceable(4) ptr @_ZN7nanogui5ArrayIiLm2EE1xILm2ETnNSt3__19enable_ifIXgeT_Li1EEiE4typeELi0EEERiv(ptr noundef nonnull align 4 dereferenceable(8) %0) #1 comdat align 2 {
  %2 = alloca ptr, align 8
  store ptr %0, ptr %2, align 8
  %3 = load ptr, ptr %2, align 8
  %4 = getelementptr inbounds %"struct.nanogui::Array.2", ptr %3, i32 0, i32 0
  %5 = getelementptr inbounds [2 x i32], ptr %4, i64 0, i64 0
  ret ptr %5
}

; Function Attrs: mustprogress uwtable
define internal void @"_ZZN3tev11ImageCanvas23computeCanvasStatisticsENSt3__110shared_ptrINS_5ImageEEES4_RKNS1_12basic_stringIcNS1_11char_traitsIcEENS1_9allocatorIcEEEENS_7EMetricERKNS_3BoxIiLj2EEEiENK3$_3clEi"(ptr noundef nonnull align 8 dereferenceable(56) %0, i32 noundef %1) #4 align 2 {
  %3 = alloca ptr, align 8
  %4 = alloca i32, align 4
  %5 = alloca i32, align 4
  %6 = alloca i32, align 4
  %7 = alloca %"struct.nanogui::Array.2", align 4
  store ptr %0, ptr %3, align 8
  store i32 %1, ptr %4, align 4
  %8 = load ptr, ptr %3, align 8
  %9 = load i32, ptr %4, align 4
  %10 = getelementptr inbounds %class.anon.203, ptr %8, i32 0, i32 1
  %11 = load ptr, ptr %10, align 8
  %12 = call noundef nonnull align 4 dereferenceable(4) ptr @_ZN7nanogui5ArrayIiLm2EE1xILm2ETnNSt3__19enable_ifIXgeT_Li1EEiE4typeELi0EEERiv(ptr noundef nonnull align 4 dereferenceable(8) %11)
  %13 = load i32, ptr %12, align 4
  %14 = srem i32 %9, %13
  %15 = getelementptr inbounds %class.anon.203, ptr %8, i32 0, i32 2
  %16 = load ptr, ptr %15, align 8
  %17 = getelementptr inbounds %"struct.tev::Box", ptr %16, i32 0, i32 0
  %18 = call noundef nonnull align 4 dereferenceable(4) ptr @_ZNK7nanogui5ArrayIiLm2EE1xILm2ETnNSt3__19enable_ifIXgeT_Li1EEiE4typeELi0EEERKiv(ptr noundef nonnull align 4 dereferenceable(8) %17)
  %19 = load i32, ptr %18, align 4
  %20 = add nsw i32 %14, %19
  store i32 %20, ptr %5, align 4
  %21 = load i32, ptr %4, align 4
  %22 = getelementptr inbounds %class.anon.203, ptr %8, i32 0, i32 1
  %23 = load ptr, ptr %22, align 8
  %24 = call noundef nonnull align 4 dereferenceable(4) ptr @_ZN7nanogui5ArrayIiLm2EE1xILm2ETnNSt3__19enable_ifIXgeT_Li1EEiE4typeELi0EEERiv(ptr noundef nonnull align 4 dereferenceable(8) %23)
  %25 = load i32, ptr %24, align 4
  %26 = sdiv i32 %21, %25
  %27 = getelementptr inbounds %class.anon.203, ptr %8, i32 0, i32 2
  %28 = load ptr, ptr %27, align 8
  %29 = getelementptr inbounds %"struct.tev::Box", ptr %28, i32 0, i32 0
  %30 = call noundef nonnull align 4 dereferenceable(4) ptr @_ZNK7nanogui5ArrayIiLm2EE1yILm2ETnNSt3__19enable_ifIXgeT_Li2EEiE4typeELi0EEERKiv(ptr noundef nonnull align 4 dereferenceable(8) %29)
  %31 = load i32, ptr %30, align 4
  %32 = add nsw i32 %26, %31
  store i32 %32, ptr %6, align 4
  %33 = getelementptr inbounds %class.anon.203, ptr %8, i32 0, i32 5
  %34 = load ptr, ptr %33, align 8
  %35 = getelementptr inbounds %class.anon.203, ptr %8, i32 0, i32 6
  %36 = load ptr, ptr %35, align 8
  %37 = load i32, ptr %5, align 4
  %38 = load i32, ptr %6, align 4
  call void @_ZN7nanogui5ArrayIiLm2EEC2ILm2ETnNSt3__19enable_ifIXeqT_Li2EEiE4typeELi0EEEii(ptr noundef nonnull align 4 dereferenceable(8) %7, i32 noundef %37, i32 noundef %38)
  %39 = getelementptr inbounds %"struct.nanogui::Array.2", ptr %7, i32 0, i32 0
  %40 = load i64, ptr %39, align 4
  %41 = call noundef float @_ZNK3tev7Channel2atEN7nanogui5ArrayIiLm2EEE(ptr noundef nonnull align 8 dereferenceable(56) %36, i64 %40)
  %42 = call noundef i32 @"_ZZN3tev11ImageCanvas23computeCanvasStatisticsENSt3__110shared_ptrINS_5ImageEEES4_RKNS1_12basic_stringIcNS1_11char_traitsIcEENS1_9allocatorIcEEEENS_7EMetricERKNS_3BoxIiLj2EEEiENK3$_2clEf"(ptr noundef nonnull align 8 dereferenceable(24) %34, float noundef %41)
  %43 = getelementptr inbounds %class.anon.203, ptr %8, i32 0, i32 3
  %44 = load ptr, ptr %43, align 8
  %45 = load i32, ptr %4, align 4
  %46 = getelementptr inbounds %class.anon.203, ptr %8, i32 0, i32 0
  %47 = load i32, ptr %46, align 8
  %48 = getelementptr inbounds %class.anon.203, ptr %8, i32 0, i32 4
  %49 = load ptr, ptr %48, align 8
  %50 = load i32, ptr %49, align 4
  %51 = mul nsw i32 %47, %50
  %52 = add nsw i32 %45, %51
  %53 = sext i32 %52 to i64
  %54 = call noundef nonnull align 4 dereferenceable(4) ptr @_ZNSt3__16vectorIiNS_9allocatorIiEEEixB8ne190000Em(ptr noundef nonnull align 8 dereferenceable(24) %44, i64 noundef %53) #12
  store i32 %42, ptr %54, align 4
  ret void
}