; Function Attrs: mustprogress nofree nounwind willreturn memory(readwrite, inaccessiblemem: write) uwtable
define internal fastcc void @"_ZZN3tev11ImageCanvas23computeCanvasStatisticsENSt3__110shared_ptrINS_5ImageEEES4_RKNS1_12basic_stringIcNS1_11char_traitsIcEENS1_9allocatorIcEEEENS_7EMetricERKNS_3BoxIiLj2EEEiENK3$_3clEi"(ptr nocapture noundef nonnull readonly align 8 dereferenceable(56) %0, i32 noundef %1) unnamed_addr #29 align 2 {
  %3 = getelementptr inbounds i8, ptr %0, i64 8
  %4 = load ptr, ptr %3, align 8
  %5 = load i32, ptr %4, align 4
  %6 = srem i32 %1, %5
  %7 = getelementptr inbounds i8, ptr %0, i64 16
  %8 = load ptr, ptr %7, align 8
  %9 = load i32, ptr %8, align 4
  %10 = add nsw i32 %9, %6
  %11 = sdiv i32 %1, %5
  %12 = getelementptr inbounds i8, ptr %8, i64 4
  %13 = load i32, ptr %12, align 4
  %14 = add nsw i32 %13, %11
  %15 = getelementptr inbounds i8, ptr %0, i64 40
  %16 = load ptr, ptr %15, align 8
  %17 = getelementptr inbounds i8, ptr %0, i64 48
  %18 = load ptr, ptr %17, align 8
  %19 = getelementptr inbounds i8, ptr %18, i64 24
  %20 = load i32, ptr %19, align 4
  %21 = mul nsw i32 %20, %14
  %22 = add nsw i32 %10, %21
  %23 = sext i32 %22 to i64
  %24 = getelementptr inbounds i8, ptr %18, i64 32
  %25 = load ptr, ptr %24, align 8
  %26 = getelementptr inbounds float, ptr %25, i64 %23
  %27 = load float, ptr %26, align 4
  %28 = fcmp ogt float %27, 0.000000e+00
  br i1 %28, label %29, label %34

29:                                               ; preds = %2
  %30 = fadd float %27, 0x3F50624DE0000000
  %31 = tail call noundef float @logf(float noundef %30) #33
  %32 = load float, ptr @_ZZN3tev11ImageCanvas23computeCanvasStatisticsENSt3__110shared_ptrINS_5ImageEEES4_RKNS1_12basic_stringIcNS1_11char_traitsIcEENS1_9allocatorIcEEEENS_7EMetricERKNS_3BoxIiLj2EEEiE8smallest, align 4
  %33 = fsub float %31, %32
  br label %"_ZZN3tev11ImageCanvas23computeCanvasStatisticsENSt3__110shared_ptrINS_5ImageEEES4_RKNS1_12basic_stringIcNS1_11char_traitsIcEENS1_9allocatorIcEEEENS_7EMetricERKNS_3BoxIiLj2EEEiENK3$_2clEf.exit"

34:                                               ; preds = %2
  %35 = fsub float 0x3F50624DE0000000, %27
  %36 = tail call noundef float @logf(float noundef %35) #33
  %37 = load float, ptr @_ZZN3tev11ImageCanvas23computeCanvasStatisticsENSt3__110shared_ptrINS_5ImageEEES4_RKNS1_12basic_stringIcNS1_11char_traitsIcEENS1_9allocatorIcEEEENS_7EMetricERKNS_3BoxIiLj2EEEiE8smallest, align 4
  %38 = fsub float %36, %37
  %39 = fneg float %38
  br label %"_ZZN3tev11ImageCanvas23computeCanvasStatisticsENSt3__110shared_ptrINS_5ImageEEES4_RKNS1_12basic_stringIcNS1_11char_traitsIcEENS1_9allocatorIcEEEENS_7EMetricERKNS_3BoxIiLj2EEEiENK3$_2clEf.exit"

"_ZZN3tev11ImageCanvas23computeCanvasStatisticsENSt3__110shared_ptrINS_5ImageEEES4_RKNS1_12basic_stringIcNS1_11char_traitsIcEENS1_9allocatorIcEEEENS_7EMetricERKNS_3BoxIiLj2EEEiENK3$_2clEf.exit": ; preds = %29, %34
  %40 = phi float [ %33, %29 ], [ %39, %34 ]
  %41 = getelementptr inbounds i8, ptr %16, i64 8
  %42 = load ptr, ptr %41, align 8
  %43 = load float, ptr %42, align 4
  %44 = fsub float %40, %43
  %45 = fmul float %44, 4.000000e+02
  %46 = getelementptr inbounds i8, ptr %16, i64 16
  %47 = load ptr, ptr %46, align 8
  %48 = load float, ptr %47, align 4
  %49 = fdiv float %45, %48
  %50 = fptosi float %49 to i32
  %.sroa.speculate.load.false.sroa.speculated.i = tail call i32 @llvm.smin.i32(i32 %50, i32 399)
  %.sroa.speculated.i = tail call noundef i32 @llvm.smax.i32(i32 %.sroa.speculate.load.false.sroa.speculated.i, i32 0)
  %51 = getelementptr inbounds i8, ptr %0, i64 24
  %52 = load ptr, ptr %51, align 8
  %53 = load i32, ptr %0, align 8
  %54 = getelementptr inbounds i8, ptr %0, i64 32
  %55 = load ptr, ptr %54, align 8
  %56 = load i32, ptr %55, align 4
  %57 = mul nsw i32 %56, %53
  %58 = add nsw i32 %57, %1
  %59 = sext i32 %58 to i64
  %60 = load ptr, ptr %52, align 8
  %61 = getelementptr inbounds i32, ptr %60, i64 %59
  store i32 %.sroa.speculated.i, ptr %61, align 4
  ret void
}